; ModuleID = '47/653.c'
source_filename = "47/653.c"
target datalayout = "e-m:e-p270:32:32-p271:32:32-p272:64:64-i64:64-f80:128-n8:16:32:64-S128"
target triple = "x86_64-pc-linux-gnu"

@.str = private unnamed_addr constant [4 x i8] c"%d\0A\00", align 1
@.str.1 = private unnamed_addr constant [3 x i8] c"%d\00", align 1
@.str.2 = private unnamed_addr constant [4 x i8] c"%d \00", align 1

; Function Attrs: noinline nounwind uwtable
define dso_local i32 @main() #0 {
  %1 = alloca i32, align 4
  %2 = alloca i32, align 4
  %3 = alloca i8*, align 8
  %4 = alloca i64, align 8
  %5 = alloca i32, align 4
  %6 = alloca i32, align 4
  %7 = alloca i32, align 4
  %8 = alloca i32, align 4
  store i32 0, i32* %1, align 4
  %9 = call i32 (i8*, ...) @__isoc99_scanf(i8* getelementptr inbounds ([4 x i8], [4 x i8]* @.str, i64 0, i64 0), i32* %2)
  %10 = load i32, i32* %2, align 4
  %11 = zext i32 %10 to i64
  %12 = call i8* @llvm.stacksave()
  store i8* %12, i8** %3, align 8
  %13 = alloca i32, i64 %11, align 16
  store i64 %11, i64* %4, align 8
  store i32 0, i32* %5, align 4
  br label %14

14:                                               ; preds = %23, %0
  %15 = load i32, i32* %5, align 4
  %16 = load i32, i32* %2, align 4
  %17 = icmp slt i32 %15, %16
  br i1 %17, label %18, label %26

18:                                               ; preds = %14
  %19 = load i32, i32* %5, align 4
  %20 = sext i32 %19 to i64
  %21 = getelementptr inbounds i32, i32* %13, i64 %20
  %22 = call i32 (i8*, ...) @__isoc99_scanf(i8* getelementptr inbounds ([3 x i8], [3 x i8]* @.str.1, i64 0, i64 0), i32* %21)
  br label %23

23:                                               ; preds = %18
  %24 = load i32, i32* %5, align 4
  %25 = add nsw i32 %24, 1
  store i32 %25, i32* %5, align 4
  br label %14

26:                                               ; preds = %14
  %27 = load i32, i32* %2, align 4
  %28 = sub nsw i32 %27, 1
  store i32 %28, i32* %6, align 4
  %29 = load i32, i32* %6, align 4
  %30 = sdiv i32 %29, 2
  store i32 %30, i32* %7, align 4
  store i32 0, i32* %5, align 4
  br label %31

31:                                               ; preds = %57, %26
  %32 = load i32, i32* %5, align 4
  %33 = load i32, i32* %7, align 4
  %34 = icmp sle i32 %32, %33
  br i1 %34, label %35, label %60

35:                                               ; preds = %31
  %36 = load i32, i32* %5, align 4
  %37 = sext i32 %36 to i64
  %38 = getelementptr inbounds i32, i32* %13, i64 %37
  %39 = load i32, i32* %38, align 4
  store i32 %39, i32* %8, align 4
  %40 = load i32, i32* %2, align 4
  %41 = load i32, i32* %5, align 4
  %42 = sub nsw i32 %40, %41
  %43 = sub nsw i32 %42, 1
  %44 = sext i32 %43 to i64
  %45 = getelementptr inbounds i32, i32* %13, i64 %44
  %46 = load i32, i32* %45, align 4
  %47 = load i32, i32* %5, align 4
  %48 = sext i32 %47 to i64
  %49 = getelementptr inbounds i32, i32* %13, i64 %48
  store i32 %46, i32* %49, align 4
  %50 = load i32, i32* %8, align 4
  %51 = load i32, i32* %2, align 4
  %52 = load i32, i32* %5, align 4
  %53 = sub nsw i32 %51, %52
  %54 = sub nsw i32 %53, 1
  %55 = sext i32 %54 to i64
  %56 = getelementptr inbounds i32, i32* %13, i64 %55
  store i32 %50, i32* %56, align 4
  br label %57

57:                                               ; preds = %35
  %58 = load i32, i32* %5, align 4
  %59 = add nsw i32 %58, 1
  store i32 %59, i32* %5, align 4
  br label %31

60:                                               ; preds = %31
  store i32 0, i32* %5, align 4
  br label %61

61:                                               ; preds = %83, %60
  %62 = load i32, i32* %5, align 4
  %63 = load i32, i32* %2, align 4
  %64 = icmp slt i32 %62, %63
  br i1 %64, label %65, label %86

65:                                               ; preds = %61
  %66 = load i32, i32* %5, align 4
  %67 = load i32, i32* %2, align 4
  %68 = sub nsw i32 %67, 1
  %69 = icmp ne i32 %66, %68
  br i1 %69, label %70, label %76

70:                                               ; preds = %65
  %71 = load i32, i32* %5, align 4
  %72 = sext i32 %71 to i64
  %73 = getelementptr inbounds i32, i32* %13, i64 %72
  %74 = load i32, i32* %73, align 4
  %75 = call i32 (i8*, ...) @printf(i8* getelementptr inbounds ([4 x i8], [4 x i8]* @.str.2, i64 0, i64 0), i32 %74)
  br label %82

76:                                               ; preds = %65
  %77 = load i32, i32* %5, align 4
  %78 = sext i32 %77 to i64
  %79 = getelementptr inbounds i32, i32* %13, i64 %78
  %80 = load i32, i32* %79, align 4
  %81 = call i32 (i8*, ...) @printf(i8* getelementptr inbounds ([3 x i8], [3 x i8]* @.str.1, i64 0, i64 0), i32 %80)
  br label %82

82:                                               ; preds = %76, %70
  br label %83

83:                                               ; preds = %82
  %84 = load i32, i32* %5, align 4
  %85 = add nsw i32 %84, 1
  store i32 %85, i32* %5, align 4
  br label %61

86:                                               ; preds = %61
  store i32 0, i32* %1, align 4
  %87 = load i8*, i8** %3, align 8
  call void @llvm.stackrestore(i8* %87)
  %88 = load i32, i32* %1, align 4
  ret i32 %88
}

declare dso_local i32 @__isoc99_scanf(i8*, ...) #1

; Function Attrs: nounwind
declare i8* @llvm.stacksave() #2

declare dso_local i32 @printf(i8*, ...) #1

; Function Attrs: nounwind
declare void @llvm.stackrestore(i8*) #2


!llvm.module.flags = !{!0}
!llvm.ident = !{!1}

!0 = !{i32 1, !"wchar_size", i32 4}
!1 = !{!"clang version 10.0.0-4ubuntu1 "}
